; Function Attrs: mustprogress nofree norecurse nosync nounwind willreturn memory(read, inaccessiblemem: none) uwtable
define dso_local noundef ptr @_ZN5ImGui21TableSettingsFindByIDEj(i32 noundef %0) local_unnamed_addr #12 {
  %2 = load ptr, ptr @GImGui, align 8, !tbaa !4
  %3 = getelementptr inbounds nuw i8, ptr %2, i64 9592
  %4 = getelementptr inbounds nuw i8, ptr %2, i64 9600
  %5 = load ptr, ptr %4, align 8, !tbaa !324
  %.not.i = icmp eq ptr %5, null
  %6 = getelementptr i8, ptr %5, i64 4
  br i1 %.not.i, label %._crit_edge, label %.lr.ph

.lr.ph:                                           ; preds = %1, %select.unfold
  %.0812 = phi ptr [ %12, %select.unfold ], [ %6, %1 ]
  %7 = load i32, ptr %.0812, align 4, !tbaa !325
  %8 = icmp eq i32 %7, %0
  br i1 %8, label %._crit_edge, label %select.unfold

select.unfold:                                    ; preds = %.lr.ph
  %9 = getelementptr inbounds i8, ptr %.0812, i64 -4
  %10 = load i32, ptr %9, align 4, !tbaa !273
  %11 = sext i32 %10 to i64
  %12 = getelementptr inbounds i8, ptr %.0812, i64 %11
  %13 = load i32, ptr %3, align 8, !tbaa !327
  %14 = sext i32 %13 to i64
  %gep = getelementptr i8, ptr %6, i64 %14
  %15 = icmp eq ptr %12, %gep
  br i1 %15, label %._crit_edge, label %.lr.ph

._crit_edge:                                      ; preds = %select.unfold, %.lr.ph, %1
  %.08.lcssa = phi ptr [ null, %1 ], [ %.0812, %.lr.ph ], [ null, %select.unfold ]
  ret ptr %.08.lcssa
}